; Function Attrs: nounwind uwtable
define dso_local i32 @Curl_conn_keep_alive(ptr noundef %0, ptr noundef readonly captures(none) %1, i32 noundef %2) local_unnamed_addr #1 {
  %4 = getelementptr inbounds nuw i8, ptr %1, i64 608
  %5 = sext i32 %2 to i64
  %6 = getelementptr inbounds [2 x ptr], ptr %4, i64 0, i64 %5
  %7 = load ptr, ptr %6, align 8, !tbaa !51
  %.not = icmp eq ptr %7, null
  br i1 %.not, label %13, label %8

8:                                                ; preds = %3
  %9 = load ptr, ptr %7, align 8, !tbaa !15
  %10 = getelementptr inbounds nuw i8, ptr %9, i64 104
  %11 = load ptr, ptr %10, align 8, !tbaa !49
  %12 = tail call i32 %11(ptr noundef nonnull %7, ptr noundef %0) #12
  br label %13

13:                                               ; preds = %3, %8
  %14 = phi i32 [ %12, %8 ], [ 0, %3 ]
  ret i32 %14
}